target datalayout = "e-m:e-p270:32:32-p271:32:32-p272:64:64-i64:64-i128:128-f80:128-n8:16:32:64-S128"
target triple = "x86_64-pc-linux-gnu"

%struct._object = type { %union.anon.41, ptr }
%union.anon.41 = type { i64 }
%struct._signal_module_state = type { ptr, ptr, ptr, ptr }
%struct.itimerval = type { %struct.timeval, %struct.timeval }
%struct.timeval = type { i64, i64 }
%struct.PyModuleObject = type { %struct._object, ptr, ptr, ptr, ptr, ptr }

@.str.6 = private unnamed_addr constant [10 x i8] c"setitimer\00", align 1

; Function Attrs: inlinehint nounwind uwtable
define internal ptr @_PyModule_GetState(ptr noundef %0) #3 {
  %2 = alloca ptr, align 8
  store ptr %0, ptr %2, align 8, !tbaa !179
  %3 = load ptr, ptr %2, align 8, !tbaa !179
  %4 = getelementptr inbounds nuw %struct.PyModuleObject, ptr %3, i32 0, i32 3
  %5 = load ptr, ptr %4, align 8, !tbaa !216
  ret ptr %5
}

; Function Attrs: nounwind uwtable
define internal i32 @timeval_from_double(ptr noundef %0, ptr noundef %1) #0 {
  %3 = alloca i32, align 4
  %4 = alloca ptr, align 8
  %5 = alloca ptr, align 8
  %6 = alloca i64, align 8
  %7 = alloca i32, align 4
  store ptr %0, ptr %4, align 8, !tbaa !179
  store ptr %1, ptr %5, align 8, !tbaa !209
  %8 = load ptr, ptr %4, align 8, !tbaa !179
  %9 = icmp eq ptr %8, null
  br i1 %9, label %10, label %15

10:                                               ; preds = %2
  %11 = load ptr, ptr %5, align 8, !tbaa !209
  %12 = getelementptr inbounds nuw %struct.timeval, ptr %11, i32 0, i32 0
  store i64 0, ptr %12, align 8, !tbaa !211
  %13 = load ptr, ptr %5, align 8, !tbaa !209
  %14 = getelementptr inbounds nuw %struct.timeval, ptr %13, i32 0, i32 1
  store i64 0, ptr %14, align 8, !tbaa !213
  store i32 0, ptr %3, align 4
  br label %25

15:                                               ; preds = %2
  call void @llvm.lifetime.start.p0(i64 8, ptr %6) #10
  %16 = load ptr, ptr %4, align 8, !tbaa !179
  %17 = call i32 @_PyTime_FromSecondsObject(ptr noundef %6, ptr noundef %16, i32 noundef 1)
  %18 = icmp slt i32 %17, 0
  br i1 %18, label %19, label %20

19:                                               ; preds = %15
  store i32 -1, ptr %3, align 4
  store i32 1, ptr %7, align 4
  br label %24

20:                                               ; preds = %15
  %21 = load i64, ptr %6, align 8, !tbaa !189
  %22 = load ptr, ptr %5, align 8, !tbaa !209
  %23 = call i32 @_PyTime_AsTimeval(i64 noundef %21, ptr noundef %22, i32 noundef 1)
  store i32 %23, ptr %3, align 4
  store i32 1, ptr %7, align 4
  br label %24

24:                                               ; preds = %20, %19
  call void @llvm.lifetime.end.p0(i64 8, ptr %6) #10
  br label %25

25:                                               ; preds = %24, %10
  %26 = load i32, ptr %3, align 4
  ret i32 %26
}

; Function Attrs: inlinehint nounwind uwtable
define internal ptr @get_signal_state(ptr noundef %0) #3 {
  %2 = alloca ptr, align 8
  %3 = alloca ptr, align 8
  store ptr %0, ptr %2, align 8, !tbaa !179
  call void @llvm.lifetime.start.p0(i64 8, ptr %3) #10
  %4 = load ptr, ptr %2, align 8, !tbaa !179
  %5 = call ptr @_PyModule_GetState(ptr noundef %4)
  store ptr %5, ptr %3, align 8, !tbaa !202
  %6 = load ptr, ptr %3, align 8, !tbaa !202
  call void @llvm.lifetime.end.p0(i64 8, ptr %3) #10
  ret ptr %6
}

; Function Attrs: nounwind uwtable
define internal ptr @signal_setitimer_impl(ptr noundef %0, i32 noundef %1, ptr noundef %2, ptr noundef %3) #0 {
  %5 = alloca ptr, align 8
  %6 = alloca ptr, align 8
  %7 = alloca i32, align 4
  %8 = alloca ptr, align 8
  %9 = alloca ptr, align 8
  %10 = alloca ptr, align 8
  %11 = alloca %struct.itimerval, align 8
  %12 = alloca i32, align 4
  %13 = alloca %struct.itimerval, align 8
  store ptr %0, ptr %6, align 8, !tbaa !179
  store i32 %1, ptr %7, align 4, !tbaa !4
  store ptr %2, ptr %8, align 8, !tbaa !179
  store ptr %3, ptr %9, align 8, !tbaa !179
  call void @llvm.lifetime.start.p0(i64 8, ptr %10) #10
  %14 = load ptr, ptr %6, align 8, !tbaa !179
  %15 = call ptr @get_signal_state(ptr noundef %14)
  store ptr %15, ptr %10, align 8, !tbaa !202
  call void @llvm.lifetime.start.p0(i64 32, ptr %11) #10
  %16 = load ptr, ptr %8, align 8, !tbaa !179
  %17 = getelementptr inbounds nuw %struct.itimerval, ptr %11, i32 0, i32 1
  %18 = call i32 @timeval_from_double(ptr noundef %16, ptr noundef %17)
  %19 = icmp slt i32 %18, 0
  br i1 %19, label %20, label %21

20:                                               ; preds = %4
  store ptr null, ptr %5, align 8
  store i32 1, ptr %12, align 4
  br label %39

21:                                               ; preds = %4
  %22 = load ptr, ptr %9, align 8, !tbaa !179
  %23 = getelementptr inbounds nuw %struct.itimerval, ptr %11, i32 0, i32 0
  %24 = call i32 @timeval_from_double(ptr noundef %22, ptr noundef %23)
  %25 = icmp slt i32 %24, 0
  br i1 %25, label %26, label %27

26:                                               ; preds = %21
  store ptr null, ptr %5, align 8
  store i32 1, ptr %12, align 4
  br label %39

27:                                               ; preds = %21
  call void @llvm.lifetime.start.p0(i64 32, ptr %13) #10
  %28 = load i32, ptr %7, align 4, !tbaa !4
  %29 = call i32 @setitimer(i32 noundef %28, ptr noundef %11, ptr noundef %13) #10
  %30 = icmp ne i32 %29, 0
  br i1 %30, label %31, label %36

31:                                               ; preds = %27
  %32 = load ptr, ptr %10, align 8, !tbaa !202
  %33 = getelementptr inbounds nuw %struct._signal_module_state, ptr %32, i32 0, i32 2
  %34 = load ptr, ptr %33, align 8, !tbaa !203
  %35 = call ptr @PyErr_SetFromErrno(ptr noundef %34)
  store ptr null, ptr %5, align 8
  store i32 1, ptr %12, align 4
  br label %38

36:                                               ; preds = %27
  %37 = call ptr @itimer_retval(ptr noundef %13)
  store ptr %37, ptr %5, align 8
  store i32 1, ptr %12, align 4
  br label %38

38:                                               ; preds = %36, %31
  call void @llvm.lifetime.end.p0(i64 32, ptr %13) #10
  br label %39

39:                                               ; preds = %38, %26, %20
  call void @llvm.lifetime.end.p0(i64 32, ptr %11) #10
  call void @llvm.lifetime.end.p0(i64 8, ptr %10) #10
  %40 = load ptr, ptr %5, align 8
  ret ptr %40
}

; Function Attrs: nounwind uwtable
define internal ptr @signal_setitimer(ptr noundef %0, ptr noundef %1, i64 noundef %2) #0 {
  %4 = alloca ptr, align 8
  %5 = alloca ptr, align 8
  %6 = alloca i64, align 8
  %7 = alloca ptr, align 8
  %8 = alloca i32, align 4
  %9 = alloca ptr, align 8
  %10 = alloca ptr, align 8
  store ptr %0, ptr %4, align 8, !tbaa !179
  store ptr %1, ptr %5, align 8, !tbaa !184
  store i64 %2, ptr %6, align 8, !tbaa !189
  call void @llvm.lifetime.start.p0(i64 8, ptr %7) #10
  store ptr null, ptr %7, align 8, !tbaa !179
  call void @llvm.lifetime.start.p0(i64 4, ptr %8) #10
  call void @llvm.lifetime.start.p0(i64 8, ptr %9) #10
  call void @llvm.lifetime.start.p0(i64 8, ptr %10) #10
  store ptr null, ptr %10, align 8, !tbaa !179
  %11 = load i64, ptr %6, align 8, !tbaa !189
  %12 = icmp sle i64 2, %11
  br i1 %12, label %13, label %16

13:                                               ; preds = %3
  %14 = load i64, ptr %6, align 8, !tbaa !189
  %15 = icmp sle i64 %14, 3
  br i1 %15, label %21, label %16

16:                                               ; preds = %13, %3
  %17 = load i64, ptr %6, align 8, !tbaa !189
  %18 = call i32 @_PyArg_CheckPositional(ptr noundef @.str.6, i64 noundef %17, i64 noundef 2, i64 noundef 3)
  %19 = icmp ne i32 %18, 0
  br i1 %19, label %21, label %20

20:                                               ; preds = %16
  br label %49

21:                                               ; preds = %16, %13
  %22 = load ptr, ptr %5, align 8, !tbaa !184
  %23 = getelementptr ptr, ptr %22, i64 0
  %24 = load ptr, ptr %23, align 8, !tbaa !179
  %25 = call i32 @PyLong_AsInt(ptr noundef %24)
  store i32 %25, ptr %8, align 4, !tbaa !4
  %26 = load i32, ptr %8, align 4, !tbaa !4
  %27 = icmp eq i32 %26, -1
  br i1 %27, label %28, label %32

28:                                               ; preds = %21
  %29 = call ptr @PyErr_Occurred()
  %30 = icmp ne ptr %29, null
  br i1 %30, label %31, label %32

31:                                               ; preds = %28
  br label %49

32:                                               ; preds = %28, %21
  %33 = load ptr, ptr %5, align 8, !tbaa !184
  %34 = getelementptr ptr, ptr %33, i64 1
  %35 = load ptr, ptr %34, align 8, !tbaa !179
  store ptr %35, ptr %9, align 8, !tbaa !179
  %36 = load i64, ptr %6, align 8, !tbaa !189
  %37 = icmp slt i64 %36, 3
  br i1 %37, label %38, label %39

38:                                               ; preds = %32
  br label %43

39:                                               ; preds = %32
  %40 = load ptr, ptr %5, align 8, !tbaa !184
  %41 = getelementptr ptr, ptr %40, i64 2
  %42 = load ptr, ptr %41, align 8, !tbaa !179
  store ptr %42, ptr %10, align 8, !tbaa !179
  br label %43

43:                                               ; preds = %39, %38
  %44 = load ptr, ptr %4, align 8, !tbaa !179
  %45 = load i32, ptr %8, align 4, !tbaa !4
  %46 = load ptr, ptr %9, align 8, !tbaa !179
  %47 = load ptr, ptr %10, align 8, !tbaa !179
  %48 = call ptr @signal_setitimer_impl(ptr noundef %44, i32 noundef %45, ptr noundef %46, ptr noundef %47)
  store ptr %48, ptr %7, align 8, !tbaa !179
  br label %49

49:                                               ; preds = %43, %31, %20
  %50 = load ptr, ptr %7, align 8, !tbaa !179
  call void @llvm.lifetime.end.p0(i64 8, ptr %10) #10
  call void @llvm.lifetime.end.p0(i64 8, ptr %9) #10
  call void @llvm.lifetime.end.p0(i64 4, ptr %8) #10
  call void @llvm.lifetime.end.p0(i64 8, ptr %7) #10
  ret ptr %50
}