; Function Attrs: nounwind uwtable
define internal ptr @signal_setitimer(ptr noundef readonly captures(none) %0, ptr noundef readonly captures(none) %1, i64 noundef %2) #2 {
  %4 = alloca i64, align 8
  %5 = alloca i64, align 8
  %6 = alloca %struct.itimerval, align 8
  %7 = alloca %struct.itimerval, align 8
  %8 = and i64 %2, -2
  %or.cond = icmp eq i64 %8, 2
  br i1 %or.cond, label %11, label %9

9:                                                ; preds = %3
  %10 = tail call i32 @_PyArg_CheckPositional(ptr noundef nonnull @.str.6, i64 noundef %2, i64 noundef 2, i64 noundef 3) #15
  %.not = icmp eq i32 %10, 0
  br i1 %.not, label %51, label %11

11:                                               ; preds = %3, %9
  %12 = load ptr, ptr %1, align 8, !tbaa !176
  %13 = tail call i32 @PyLong_AsInt(ptr noundef %12) #15
  %14 = icmp eq i32 %13, -1
  br i1 %14, label %15, label %17

15:                                               ; preds = %11
  %16 = tail call ptr @PyErr_Occurred() #15
  %.not14 = icmp eq ptr %16, null
  br i1 %.not14, label %17, label %51

17:                                               ; preds = %15, %11
  %18 = getelementptr i8, ptr %1, i64 8
  %19 = load ptr, ptr %18, align 8, !tbaa !176
  %20 = icmp slt i64 %2, 3
  br i1 %20, label %24, label %21

21:                                               ; preds = %17
  %22 = getelementptr i8, ptr %1, i64 16
  %23 = load ptr, ptr %22, align 8, !tbaa !176
  br label %24

24:                                               ; preds = %17, %21
  %.0 = phi ptr [ null, %17 ], [ %23, %21 ]
  %25 = getelementptr i8, ptr %0, i64 32
  %.val = load ptr, ptr %25, align 8, !tbaa !202
  call void @llvm.lifetime.start.p0(i64 32, ptr nonnull %6) #15
  %26 = getelementptr inbounds nuw i8, ptr %6, i64 16
  %27 = icmp eq ptr %19, null
  br i1 %27, label %timeval_from_double.exit.thread.i, label %28

timeval_from_double.exit.thread.i:                ; preds = %24
  call void @llvm.memset.p0.i64(ptr noundef nonnull align 8 dereferenceable(16) %26, i8 0, i64 16, i1 false)
  br label %34

28:                                               ; preds = %24
  call void @llvm.lifetime.start.p0(i64 8, ptr nonnull %5) #15
  %29 = call i32 @_PyTime_FromSecondsObject(ptr noundef nonnull %5, ptr noundef nonnull %19, i32 noundef 1) #15
  %30 = icmp slt i32 %29, 0
  br i1 %30, label %timeval_from_double.exit.thread2.i, label %timeval_from_double.exit.i

timeval_from_double.exit.thread2.i:               ; preds = %28
  call void @llvm.lifetime.end.p0(i64 8, ptr nonnull %5) #15
  br label %signal_setitimer_impl.exit

timeval_from_double.exit.i:                       ; preds = %28
  %31 = load i64, ptr %5, align 8, !tbaa !209
  %32 = call i32 @_PyTime_AsTimeval(i64 noundef %31, ptr noundef nonnull %26, i32 noundef 1) #15
  call void @llvm.lifetime.end.p0(i64 8, ptr nonnull %5) #15
  %33 = icmp slt i32 %32, 0
  br i1 %33, label %signal_setitimer_impl.exit, label %34

34:                                               ; preds = %timeval_from_double.exit.i, %timeval_from_double.exit.thread.i
  %35 = icmp eq ptr %.0, null
  br i1 %35, label %timeval_from_double.exit7.thread.i, label %36

timeval_from_double.exit7.thread.i:               ; preds = %34
  call void @llvm.memset.p0.i64(ptr noundef nonnull align 8 dereferenceable(16) %6, i8 0, i64 16, i1 false)
  br label %42

36:                                               ; preds = %34
  call void @llvm.lifetime.start.p0(i64 8, ptr nonnull %4) #15
  %37 = call i32 @_PyTime_FromSecondsObject(ptr noundef nonnull %4, ptr noundef nonnull %.0, i32 noundef 1) #15
  %38 = icmp slt i32 %37, 0
  br i1 %38, label %timeval_from_double.exit7.thread5.i, label %timeval_from_double.exit7.i

timeval_from_double.exit7.thread5.i:              ; preds = %36
  call void @llvm.lifetime.end.p0(i64 8, ptr nonnull %4) #15
  br label %signal_setitimer_impl.exit

timeval_from_double.exit7.i:                      ; preds = %36
  %39 = load i64, ptr %4, align 8, !tbaa !209
  %40 = call i32 @_PyTime_AsTimeval(i64 noundef %39, ptr noundef nonnull %6, i32 noundef 1) #15
  call void @llvm.lifetime.end.p0(i64 8, ptr nonnull %4) #15
  %41 = icmp slt i32 %40, 0
  br i1 %41, label %signal_setitimer_impl.exit, label %42

42:                                               ; preds = %timeval_from_double.exit7.i, %timeval_from_double.exit7.thread.i
  call void @llvm.lifetime.start.p0(i64 32, ptr nonnull %7) #15
  %43 = call i32 @setitimer(i32 noundef %13, ptr noundef nonnull %6, ptr noundef nonnull %7) #15
  %.not.i = icmp eq i32 %43, 0
  br i1 %.not.i, label %48, label %44

44:                                               ; preds = %42
  %45 = getelementptr inbounds nuw i8, ptr %.val, i64 16
  %46 = load ptr, ptr %45, align 8, !tbaa !205
  %47 = call ptr @PyErr_SetFromErrno(ptr noundef %46) #15
  br label %50

48:                                               ; preds = %42
  %49 = call fastcc ptr @itimer_retval(ptr noundef %7)
  br label %50

50:                                               ; preds = %48, %44
  %.1.i = phi ptr [ null, %44 ], [ %49, %48 ]
  call void @llvm.lifetime.end.p0(i64 32, ptr nonnull %7) #15
  br label %signal_setitimer_impl.exit

signal_setitimer_impl.exit:                       ; preds = %timeval_from_double.exit.thread2.i, %timeval_from_double.exit.i, %timeval_from_double.exit7.thread5.i, %timeval_from_double.exit7.i, %50
  %.0.i = phi ptr [ %.1.i, %50 ], [ null, %timeval_from_double.exit.i ], [ null, %timeval_from_double.exit7.i ], [ null, %timeval_from_double.exit.thread2.i ], [ null, %timeval_from_double.exit7.thread5.i ]
  call void @llvm.lifetime.end.p0(i64 32, ptr nonnull %6) #15
  br label %51

51:                                               ; preds = %15, %9, %signal_setitimer_impl.exit
  %.013 = phi ptr [ null, %15 ], [ %.0.i, %signal_setitimer_impl.exit ], [ null, %9 ]
  ret ptr %.013
}